; Function Attrs: mustprogress nofree norecurse nosync nounwind willreturn memory(argmem: readwrite) uwtable
define void @_ZN3gmx8MttkData26updateReferenceTemperatureEfNS_35ReferenceTemperatureChangeAlgorithmE(ptr noundef nonnull align 8 captures(none) dereferenceable(152) %0, float noundef %1, i32 noundef %2) local_unnamed_addr #23 align 2 {
  %4 = getelementptr inbounds nuw i8, ptr %0, i64 96
  %5 = load float, ptr %4, align 8, !tbaa !325
  %6 = fdiv float %1, %5
  %7 = getelementptr inbounds nuw i8, ptr %0, i64 16
  %8 = load float, ptr %7, align 8, !tbaa !326
  %9 = fmul float %8, %6
  store float %9, ptr %7, align 8, !tbaa !326
  store float %1, ptr %4, align 8, !tbaa !325
  ret void
}